target datalayout = "e-m:e-p270:32:32-p271:32:32-p272:64:64-i64:64-i128:128-f80:128-n8:16:32:64-S128"
target triple = "x86_64-unknown-linux-gnu"

@.str.7 = private unnamed_addr constant [1 x i8] zeroinitializer, align 1

; Function Attrs: nounwind sspstrong uwtable
define internal void @get_drive(ptr noundef %obj, ptr noundef %v, ptr noundef %name, ptr noundef %opaque, ptr noundef %errp) #0 {
entry:
  %obj.addr = alloca ptr, align 8
  %v.addr = alloca ptr, align 8
  %name.addr = alloca ptr, align 8
  %opaque.addr = alloca ptr, align 8
  %errp.addr = alloca ptr, align 8
  %prop = alloca ptr, align 8
  %ptr = alloca ptr, align 8
  %value = alloca ptr, align 8
  %p = alloca ptr, align 8
  %bs = alloca ptr, align 8
  store ptr %obj, ptr %obj.addr, align 8
  store ptr %v, ptr %v.addr, align 8
  store ptr %name, ptr %name.addr, align 8
  store ptr %opaque, ptr %opaque.addr, align 8
  store ptr %errp, ptr %errp.addr, align 8
  %0 = load ptr, ptr %opaque.addr, align 8
  store ptr %0, ptr %prop, align 8
  %1 = load ptr, ptr %obj.addr, align 8
  %2 = load ptr, ptr %prop, align 8
  %call = call ptr @object_field_prop_ptr(ptr noundef %1, ptr noundef %2)
  store ptr %call, ptr %ptr, align 8
  %3 = load ptr, ptr %ptr, align 8
  %4 = load ptr, ptr %3, align 8
  %tobool = icmp ne ptr %4, null
  br i1 %tobool, label %if.then, label %if.else

if.then:                                          ; preds = %entry
  %5 = load ptr, ptr %ptr, align 8
  %6 = load ptr, ptr %5, align 8
  %call1 = call ptr @blk_name(ptr noundef %6)
  store ptr %call1, ptr %value, align 8
  %7 = load ptr, ptr %value, align 8
  %8 = load i8, ptr %7, align 1
  %tobool2 = icmp ne i8 %8, 0
  br i1 %tobool2, label %if.end8, label %if.then3

if.then3:                                         ; preds = %if.then
  %9 = load ptr, ptr %ptr, align 8
  %10 = load ptr, ptr %9, align 8
  %call4 = call ptr @blk_bs(ptr noundef %10)
  store ptr %call4, ptr %bs, align 8
  %11 = load ptr, ptr %bs, align 8
  %tobool5 = icmp ne ptr %11, null
  br i1 %tobool5, label %if.then6, label %if.end

if.then6:                                         ; preds = %if.then3
  %12 = load ptr, ptr %bs, align 8
  %call7 = call ptr @bdrv_get_node_name(ptr noundef %12)
  store ptr %call7, ptr %value, align 8
  br label %if.end

if.end:                                           ; preds = %if.then6, %if.then3
  br label %if.end8

if.end8:                                          ; preds = %if.end, %if.then
  br label %if.end9

if.else:                                          ; preds = %entry
  store ptr @.str.7, ptr %value, align 8
  br label %if.end9

if.end9:                                          ; preds = %if.else, %if.end8
  %13 = load ptr, ptr %value, align 8
  %call10 = call noalias ptr @g_strdup(ptr noundef %13)
  store ptr %call10, ptr %p, align 8
  %14 = load ptr, ptr %v.addr, align 8
  %15 = load ptr, ptr %name.addr, align 8
  %16 = load ptr, ptr %errp.addr, align 8
  %call11 = call zeroext i1 @visit_type_str(ptr noundef %14, ptr noundef %15, ptr noundef %p, ptr noundef %16)
  %17 = load ptr, ptr %p, align 8
  call void @g_free(ptr noundef %17)
  ret void
}