; Function Attrs: nounwind sspstrong uwtable
define internal void @get_drive(ptr noundef %obj, ptr noundef %v, ptr noundef %name, ptr noundef %opaque, ptr noundef %errp) #0 {
entry:
  %p = alloca ptr, align 8
  %call = tail call ptr @object_field_prop_ptr(ptr noundef %obj, ptr noundef %opaque) #10
  %0 = load ptr, ptr %call, align 8
  %tobool.not = icmp eq ptr %0, null
  br i1 %tobool.not, label %if.end9, label %if.then

if.then:                                          ; preds = %entry
  %call1 = tail call ptr @blk_name(ptr noundef nonnull %0) #10
  %1 = load i8, ptr %call1, align 1
  %tobool2.not = icmp eq i8 %1, 0
  br i1 %tobool2.not, label %if.then3, label %if.end9

if.then3:                                         ; preds = %if.then
  %2 = load ptr, ptr %call, align 8
  %call4 = tail call ptr @blk_bs(ptr noundef %2) #10
  %tobool5.not = icmp eq ptr %call4, null
  br i1 %tobool5.not, label %if.end9, label %if.then6

if.then6:                                         ; preds = %if.then3
  %call7 = tail call ptr @bdrv_get_node_name(ptr noundef nonnull %call4) #10
  br label %if.end9

if.end9:                                          ; preds = %entry, %if.then, %if.then6, %if.then3
  %value.0 = phi ptr [ %call1, %if.then ], [ %call7, %if.then6 ], [ %call1, %if.then3 ], [ @.str.7, %entry ]
  %call10 = tail call noalias ptr @g_strdup(ptr noundef %value.0) #10
  store ptr %call10, ptr %p, align 8
  %call11 = call zeroext i1 @visit_type_str(ptr noundef %v, ptr noundef %name, ptr noundef nonnull %p, ptr noundef %errp) #10
  %3 = load ptr, ptr %p, align 8
  call void @g_free(ptr noundef %3) #10
  ret void
}